; Function Attrs: mustprogress uwtable
define void @_ZNK32pxrInternal_v0_24__pxrReserved__10UsdZipFile5beginEv(ptr dead_on_unwind noalias writable sret(%"class.pxrInternal_v0_24__pxrReserved__::UsdZipFile::Iterator") align 8 %0, ptr nocapture noundef nonnull readonly align 8 dereferenceable(16) %1) local_unnamed_addr #0 align 2 {
  %3 = load ptr, ptr %1, align 8
  %.not = icmp eq ptr %3, null
  br i1 %.not, label %5, label %4

4:                                                ; preds = %2
  tail call void @_ZN32pxrInternal_v0_24__pxrReserved__10UsdZipFile5_Impl11CachedBeginEv(ptr dead_on_unwind writable sret(%"class.pxrInternal_v0_24__pxrReserved__::UsdZipFile::Iterator") align 8 %0, ptr noundef nonnull align 8 dereferenceable(160) %3)
  br label %6

5:                                                ; preds = %2
  tail call void @_ZN32pxrInternal_v0_24__pxrReserved__10UsdZipFile8IteratorC1Ev(ptr noundef nonnull align 8 dereferenceable(8) %0)
  br label %6

6:                                                ; preds = %5, %4
  ret void
}